target datalayout = "e-m:e-p270:32:32-p271:32:32-p272:64:64-i64:64-i128:128-f80:128-n8:16:32:64-S128"
target triple = "x86_64-pc-linux-gnu"

%struct.AVRational = type { i32, i32 }
%struct.AVChannelLayout = type { i32, i32, %union.anon.0, ptr }
%union.anon.0 = type { i64 }
%struct.AVFrame = type { [8 x ptr], [8 x i32], ptr, i32, i32, i32, i32, i32, %struct.AVRational, i64, i64, %struct.AVRational, i32, ptr, i32, i32, [8 x ptr], ptr, i32, ptr, i32, i32, i32, i32, i32, i32, i32, i64, ptr, i32, ptr, ptr, i64, i64, i64, i64, ptr, %struct.AVChannelLayout, i64 }

; Function Attrs: alwaysinline nounwind willreturn memory(none) uwtable
define internal i32 @av_clip_uintp2_c(i32 noundef %0, i32 noundef %1) #6 {
  %3 = alloca i32, align 4
  %4 = alloca i32, align 4
  %5 = alloca i32, align 4
  store i32 %0, ptr %4, align 4, !tbaa !41
  store i32 %1, ptr %5, align 4, !tbaa !41
  %6 = load i32, ptr %4, align 4, !tbaa !41
  %7 = load i32, ptr %5, align 4, !tbaa !41
  %8 = shl i32 1, %7
  %9 = sub i32 %8, 1
  %10 = xor i32 %9, -1
  %11 = and i32 %6, %10
  %12 = icmp ne i32 %11, 0
  br i1 %12, label %13, label %21

13:                                               ; preds = %2
  %14 = load i32, ptr %4, align 4, !tbaa !41
  %15 = xor i32 %14, -1
  %16 = ashr i32 %15, 31
  %17 = load i32, ptr %5, align 4, !tbaa !41
  %18 = shl i32 1, %17
  %19 = sub i32 %18, 1
  %20 = and i32 %16, %19
  store i32 %20, ptr %3, align 4
  br label %23

21:                                               ; preds = %2
  %22 = load i32, ptr %4, align 4, !tbaa !41
  store i32 %22, ptr %3, align 4
  br label %23

23:                                               ; preds = %21, %13
  %24 = load i32, ptr %3, align 4
  ret i32 %24
}

; Function Attrs: nounwind uwtable
define internal void @postprocess_chroma(ptr noundef %0, i32 noundef %1, i32 noundef %2, i32 noundef %3) #1 {
  %5 = alloca ptr, align 8
  %6 = alloca i32, align 4
  %7 = alloca i32, align 4
  %8 = alloca i32, align 4
  %9 = alloca ptr, align 8
  %10 = alloca ptr, align 8
  %11 = alloca ptr, align 8
  %12 = alloca ptr, align 8
  %13 = alloca i64, align 8
  %14 = alloca i64, align 8
  %15 = alloca i32, align 4
  %16 = alloca i32, align 4
  %17 = alloca i32, align 4
  %18 = alloca i32, align 4
  store ptr %0, ptr %5, align 8, !tbaa !30
  store i32 %1, ptr %6, align 4, !tbaa !41
  store i32 %2, ptr %7, align 4, !tbaa !41
  store i32 %3, ptr %8, align 4, !tbaa !41
  call void @llvm.lifetime.start.p0(i64 8, ptr %9) #11
  %19 = load ptr, ptr %5, align 8, !tbaa !30
  %20 = getelementptr inbounds nuw %struct.AVFrame, ptr %19, i32 0, i32 0
  %21 = getelementptr inbounds [8 x ptr], ptr %20, i64 0, i64 1
  %22 = load ptr, ptr %21, align 8, !tbaa !61
  store ptr %22, ptr %9, align 8, !tbaa !68
  call void @llvm.lifetime.start.p0(i64 8, ptr %10) #11
  %23 = load ptr, ptr %5, align 8, !tbaa !30
  %24 = getelementptr inbounds nuw %struct.AVFrame, ptr %23, i32 0, i32 0
  %25 = getelementptr inbounds [8 x ptr], ptr %24, i64 0, i64 2
  %26 = load ptr, ptr %25, align 8, !tbaa !61
  store ptr %26, ptr %10, align 8, !tbaa !68
  call void @llvm.lifetime.start.p0(i64 8, ptr %11) #11
  %27 = load ptr, ptr %5, align 8, !tbaa !30
  %28 = getelementptr inbounds nuw %struct.AVFrame, ptr %27, i32 0, i32 0
  %29 = getelementptr inbounds [8 x ptr], ptr %28, i64 0, i64 1
  %30 = load ptr, ptr %29, align 8, !tbaa !61
  store ptr %30, ptr %11, align 8, !tbaa !68
  call void @llvm.lifetime.start.p0(i64 8, ptr %12) #11
  %31 = load ptr, ptr %5, align 8, !tbaa !30
  %32 = getelementptr inbounds nuw %struct.AVFrame, ptr %31, i32 0, i32 0
  %33 = getelementptr inbounds [8 x ptr], ptr %32, i64 0, i64 2
  %34 = load ptr, ptr %33, align 8, !tbaa !61
  store ptr %34, ptr %12, align 8, !tbaa !68
  call void @llvm.lifetime.start.p0(i64 8, ptr %13) #11
  %35 = load ptr, ptr %5, align 8, !tbaa !30
  %36 = getelementptr inbounds nuw %struct.AVFrame, ptr %35, i32 0, i32 1
  %37 = getelementptr inbounds [8 x i32], ptr %36, i64 0, i64 1
  %38 = load i32, ptr %37, align 4, !tbaa !41
  %39 = sdiv i32 %38, 2
  %40 = sext i32 %39 to i64
  store i64 %40, ptr %13, align 8, !tbaa !78
  call void @llvm.lifetime.start.p0(i64 8, ptr %14) #11
  %41 = load ptr, ptr %5, align 8, !tbaa !30
  %42 = getelementptr inbounds nuw %struct.AVFrame, ptr %41, i32 0, i32 1
  %43 = getelementptr inbounds [8 x i32], ptr %42, i64 0, i64 2
  %44 = load i32, ptr %43, align 8, !tbaa !41
  %45 = sdiv i32 %44, 2
  %46 = sext i32 %45 to i64
  store i64 %46, ptr %14, align 8, !tbaa !78
  call void @llvm.lifetime.start.p0(i64 4, ptr %15) #11
  %47 = load i32, ptr %8, align 4, !tbaa !41
  %48 = sub nsw i32 %47, 1
  %49 = shl i32 1, %48
  store i32 %49, ptr %15, align 4, !tbaa !41
  call void @llvm.lifetime.start.p0(i64 4, ptr %16) #11
  %50 = load i32, ptr %8, align 4, !tbaa !41
  %51 = sub nsw i32 16, %50
  store i32 %51, ptr %16, align 4, !tbaa !41
  call void @llvm.lifetime.start.p0(i64 4, ptr %17) #11
  call void @llvm.lifetime.start.p0(i64 4, ptr %18) #11
  store i32 0, ptr %18, align 4, !tbaa !41
  br label %52

52:                                               ; preds = %112, %4
  %53 = load i32, ptr %18, align 4, !tbaa !41
  %54 = load i32, ptr %7, align 4, !tbaa !41
  %55 = icmp slt i32 %53, %54
  br i1 %55, label %56, label %115

56:                                               ; preds = %52
  store i32 0, ptr %17, align 4, !tbaa !41
  br label %57

57:                                               ; preds = %96, %56
  %58 = load i32, ptr %17, align 4, !tbaa !41
  %59 = load i32, ptr %6, align 4, !tbaa !41
  %60 = icmp slt i32 %58, %59
  br i1 %60, label %61, label %99

61:                                               ; preds = %57
  %62 = load i32, ptr %15, align 4, !tbaa !41
  %63 = load ptr, ptr %11, align 8, !tbaa !68
  %64 = load i32, ptr %17, align 4, !tbaa !41
  %65 = sext i32 %64 to i64
  %66 = getelementptr inbounds i16, ptr %63, i64 %65
  %67 = load i16, ptr %66, align 2, !tbaa !65
  %68 = sext i16 %67 to i32
  %69 = add i32 %62, %68
  %70 = load i32, ptr %8, align 4, !tbaa !41
  %71 = call i32 @av_clip_uintp2_c(i32 noundef %69, i32 noundef %70) #13
  %72 = load i32, ptr %16, align 4, !tbaa !41
  %73 = shl i32 %71, %72
  %74 = trunc i32 %73 to i16
  %75 = load ptr, ptr %9, align 8, !tbaa !68
  %76 = load i32, ptr %17, align 4, !tbaa !41
  %77 = sext i32 %76 to i64
  %78 = getelementptr inbounds i16, ptr %75, i64 %77
  store i16 %74, ptr %78, align 2, !tbaa !65
  %79 = load i32, ptr %15, align 4, !tbaa !41
  %80 = load ptr, ptr %12, align 8, !tbaa !68
  %81 = load i32, ptr %17, align 4, !tbaa !41
  %82 = sext i32 %81 to i64
  %83 = getelementptr inbounds i16, ptr %80, i64 %82
  %84 = load i16, ptr %83, align 2, !tbaa !65
  %85 = sext i16 %84 to i32
  %86 = add i32 %79, %85
  %87 = load i32, ptr %8, align 4, !tbaa !41
  %88 = call i32 @av_clip_uintp2_c(i32 noundef %86, i32 noundef %87) #13
  %89 = load i32, ptr %16, align 4, !tbaa !41
  %90 = shl i32 %88, %89
  %91 = trunc i32 %90 to i16
  %92 = load ptr, ptr %10, align 8, !tbaa !68
  %93 = load i32, ptr %17, align 4, !tbaa !41
  %94 = sext i32 %93 to i64
  %95 = getelementptr inbounds i16, ptr %92, i64 %94
  store i16 %91, ptr %95, align 2, !tbaa !65
  br label %96

96:                                               ; preds = %61
  %97 = load i32, ptr %17, align 4, !tbaa !41
  %98 = add nsw i32 %97, 1
  store i32 %98, ptr %17, align 4, !tbaa !41
  br label %57, !llvm.loop !82

99:                                               ; preds = %57
  %100 = load i64, ptr %13, align 8, !tbaa !78
  %101 = load ptr, ptr %9, align 8, !tbaa !68
  %102 = getelementptr inbounds i16, ptr %101, i64 %100
  store ptr %102, ptr %9, align 8, !tbaa !68
  %103 = load i64, ptr %14, align 8, !tbaa !78
  %104 = load ptr, ptr %10, align 8, !tbaa !68
  %105 = getelementptr inbounds i16, ptr %104, i64 %103
  store ptr %105, ptr %10, align 8, !tbaa !68
  %106 = load i64, ptr %13, align 8, !tbaa !78
  %107 = load ptr, ptr %11, align 8, !tbaa !68
  %108 = getelementptr inbounds i16, ptr %107, i64 %106
  store ptr %108, ptr %11, align 8, !tbaa !68
  %109 = load i64, ptr %14, align 8, !tbaa !78
  %110 = load ptr, ptr %12, align 8, !tbaa !68
  %111 = getelementptr inbounds i16, ptr %110, i64 %109
  store ptr %111, ptr %12, align 8, !tbaa !68
  br label %112

112:                                              ; preds = %99
  %113 = load i32, ptr %18, align 4, !tbaa !41
  %114 = add nsw i32 %113, 1
  store i32 %114, ptr %18, align 4, !tbaa !41
  br label %52, !llvm.loop !83

115:                                              ; preds = %52
  call void @llvm.lifetime.end.p0(i64 4, ptr %18) #11
  call void @llvm.lifetime.end.p0(i64 4, ptr %17) #11
  call void @llvm.lifetime.end.p0(i64 4, ptr %16) #11
  call void @llvm.lifetime.end.p0(i64 4, ptr %15) #11
  call void @llvm.lifetime.end.p0(i64 8, ptr %14) #11
  call void @llvm.lifetime.end.p0(i64 8, ptr %13) #11
  call void @llvm.lifetime.end.p0(i64 8, ptr %12) #11
  call void @llvm.lifetime.end.p0(i64 8, ptr %11) #11
  call void @llvm.lifetime.end.p0(i64 8, ptr %10) #11
  call void @llvm.lifetime.end.p0(i64 8, ptr %9) #11
  ret void
}