; Function Attrs: nofree norecurse nosync nounwind memory(readwrite, inaccessiblemem: none) uwtable
define internal fastcc void @postprocess_chroma(ptr noundef readonly captures(none) %0, i32 noundef range(i32 -1073741824, 1073741824) %1, i32 noundef range(i32 -1073741824, 1073741824) %2, i32 noundef %3) unnamed_addr #4 {
  %5 = getelementptr inbounds nuw i8, ptr %0, i64 68
  %6 = load i32, ptr %5, align 4, !tbaa !55
  %7 = sdiv i32 %6, 2
  %8 = sext i32 %7 to i64
  %9 = getelementptr inbounds nuw i8, ptr %0, i64 72
  %10 = load i32, ptr %9, align 8, !tbaa !55
  %11 = sdiv i32 %10, 2
  %12 = sext i32 %11 to i64
  %13 = add nsw i32 %3, -1
  %14 = shl nuw i32 1, %13
  %15 = sub nsw i32 16, %3
  %16 = icmp sgt i32 %2, 0
  br i1 %16, label %.preheader.lr.ph, label %._crit_edge50

.preheader.lr.ph:                                 ; preds = %4
  %17 = icmp sgt i32 %1, 0
  %notmask.i = shl nsw i32 -1, %3
  %18 = xor i32 %notmask.i, -1
  br i1 %17, label %.preheader.us.preheader, label %._crit_edge50

.preheader.us.preheader:                          ; preds = %.preheader.lr.ph
  %19 = getelementptr inbounds nuw i8, ptr %0, i64 8
  %20 = load ptr, ptr %19, align 8, !tbaa !36
  %21 = getelementptr inbounds nuw i8, ptr %0, i64 16
  %22 = load ptr, ptr %21, align 8, !tbaa !36
  %wide.trip.count = zext nneg i32 %1 to i64
  br label %.preheader.us

.preheader.us:                                    ; preds = %.preheader.us.preheader, %._crit_edge.us
  %.049.us = phi i32 [ %42, %._crit_edge.us ], [ 0, %.preheader.us.preheader ]
  %.03648.us = phi ptr [ %40, %._crit_edge.us ], [ %20, %.preheader.us.preheader ]
  %.03747.us = phi ptr [ %41, %._crit_edge.us ], [ %22, %.preheader.us.preheader ]
  br label %23

23:                                               ; preds = %.preheader.us, %23
  %indvars.iv = phi i64 [ 0, %.preheader.us ], [ %indvars.iv.next, %23 ]
  %24 = getelementptr inbounds nuw i16, ptr %.03648.us, i64 %indvars.iv
  %25 = load i16, ptr %24, align 2, !tbaa !42
  %26 = sext i16 %25 to i32
  %27 = add i32 %14, %26
  %28 = and i32 %27, %notmask.i
  %.not.i.us = icmp eq i32 %28, 0
  %isnotneg.inv.i.us = icmp slt i32 %27, 0
  %29 = select i1 %isnotneg.inv.i.us, i32 0, i32 %18
  %.0.i.us = select i1 %.not.i.us, i32 %27, i32 %29
  %30 = shl i32 %.0.i.us, %15
  %31 = trunc i32 %30 to i16
  store i16 %31, ptr %24, align 2, !tbaa !42
  %32 = getelementptr inbounds nuw i16, ptr %.03747.us, i64 %indvars.iv
  %33 = load i16, ptr %32, align 2, !tbaa !42
  %34 = sext i16 %33 to i32
  %35 = add i32 %14, %34
  %36 = and i32 %35, %notmask.i
  %.not.i41.us = icmp eq i32 %36, 0
  %isnotneg.inv.i42.us = icmp slt i32 %35, 0
  %37 = select i1 %isnotneg.inv.i42.us, i32 0, i32 %18
  %.0.i43.us = select i1 %.not.i41.us, i32 %35, i32 %37
  %38 = shl i32 %.0.i43.us, %15
  %39 = trunc i32 %38 to i16
  store i16 %39, ptr %32, align 2, !tbaa !42
  %indvars.iv.next = add nuw nsw i64 %indvars.iv, 1
  %exitcond.not = icmp eq i64 %indvars.iv.next, %wide.trip.count
  br i1 %exitcond.not, label %._crit_edge.us, label %23, !llvm.loop !92

._crit_edge.us:                                   ; preds = %23
  %40 = getelementptr i16, ptr %.03648.us, i64 %8
  %41 = getelementptr i16, ptr %.03747.us, i64 %12
  %42 = add nuw nsw i32 %.049.us, 1
  %exitcond53.not = icmp eq i32 %42, %2
  br i1 %exitcond53.not, label %._crit_edge50, label %.preheader.us, !llvm.loop !93

._crit_edge50:                                    ; preds = %._crit_edge.us, %.preheader.lr.ph, %4
  ret void
}